; Function Attrs: mustprogress nofree norecurse nosync nounwind willreturn memory(argmem: write) uwtable
define void @_ZN32pxrInternal_v0_24__pxrReserved__15HgiStencilStateC2Ev(ptr nocapture noundef nonnull writeonly align 4 dereferenceable(28) %0) unnamed_addr #0 align 2 {
  store i32 7, ptr %0, align 4
  %2 = getelementptr inbounds nuw i8, ptr %0, i64 4
  %3 = getelementptr inbounds nuw i8, ptr %0, i64 20
  tail call void @llvm.memset.p0.i64(ptr noundef nonnull align 4 dereferenceable(16) %2, i8 0, i64 16, i1 false)
  store i32 -1, ptr %3, align 4
  %4 = getelementptr inbounds nuw i8, ptr %0, i64 24
  store i32 -1, ptr %4, align 4
  ret void
}